; Function Attrs: inlinehint nounwind uwtable
define internal fastcc i64 @heap_getattr(ptr noundef nonnull %0, i32 noundef range(i32 -32768, 32768) %1, ptr noundef %2, ptr noundef nonnull %3) unnamed_addr #5 {
  %5 = icmp sgt i32 %1, 0
  br i1 %5, label %6, label %71

6:                                                ; preds = %4
  %7 = getelementptr inbounds nuw i8, ptr %0, i64 16
  %8 = load ptr, ptr %7, align 8
  %9 = getelementptr inbounds nuw i8, ptr %8, i64 18
  %10 = load i16, ptr %9, align 2
  %11 = and i16 %10, 2047
  %12 = zext nneg i16 %11 to i32
  %13 = icmp samesign ugt i32 %1, %12
  br i1 %13, label %14, label %16

14:                                               ; preds = %6
  %15 = tail call i64 @getmissingattr(ptr noundef %2, i32 noundef %1, ptr noundef nonnull %3) #8
  br label %fastgetattr.exit

16:                                               ; preds = %6
  store i8 0, ptr %3, align 1
  %.val.i = load ptr, ptr %7, align 8
  %17 = getelementptr i8, ptr %.val.i, i64 20
  %.val.val.i = load i16, ptr %17, align 4
  %18 = and i16 %.val.val.i, 1
  %.not.i.i = icmp eq i16 %18, 0
  %19 = add nsw i32 %1, -1
  br i1 %.not.i.i, label %20, label %58

20:                                               ; preds = %16
  %21 = getelementptr inbounds nuw i8, ptr %2, i64 24
  %22 = zext nneg i32 %19 to i64
  %23 = getelementptr inbounds nuw [0 x %struct.CompactAttribute], ptr %21, i64 0, i64 %22
  %24 = load i32, ptr %23, align 4
  %25 = icmp sgt i32 %24, -1
  br i1 %25, label %26, label %56

26:                                               ; preds = %20
  %27 = getelementptr inbounds nuw i8, ptr %.val.i, i64 22
  %28 = load i8, ptr %27, align 2
  %29 = zext i8 %28 to i64
  %30 = getelementptr inbounds nuw i8, ptr %.val.i, i64 %29
  %31 = zext nneg i32 %24 to i64
  %32 = getelementptr inbounds nuw i8, ptr %30, i64 %31
  %33 = getelementptr inbounds nuw i8, ptr %23, i64 6
  %34 = load i8, ptr %33, align 2, !range !4, !noundef !5
  %35 = trunc nuw i8 %34 to i1
  %36 = getelementptr inbounds nuw i8, ptr %23, i64 4
  %37 = load i16, ptr %36, align 4
  br i1 %35, label %38, label %54

38:                                               ; preds = %26
  switch i16 %37, label %50 [
    i16 1, label %39
    i16 2, label %42
    i16 4, label %45
    i16 8, label %48
  ]

39:                                               ; preds = %38
  %40 = load i8, ptr %32, align 1
  %41 = sext i8 %40 to i64
  br label %fastgetattr.exit

42:                                               ; preds = %38
  %43 = load i16, ptr %32, align 2
  %44 = sext i16 %43 to i64
  br label %fastgetattr.exit

45:                                               ; preds = %38
  %46 = load i32, ptr %32, align 4
  %47 = sext i32 %46 to i64
  br label %fastgetattr.exit

48:                                               ; preds = %38
  %49 = load i64, ptr %32, align 8
  br label %fastgetattr.exit

50:                                               ; preds = %38
  %51 = sext i16 %37 to i32
  %52 = tail call zeroext i1 @errstart_cold(i32 noundef 21, ptr noundef null) #9
  tail call void @llvm.assume(i1 %52)
  %53 = tail call i32 (ptr, ...) @errmsg_internal(ptr noundef nonnull @.str.24, i32 noundef range(i32 -32768, 32768) %51) #8
  tail call void @errfinish(ptr noundef nonnull @.str.25, i32 noundef 70, ptr noundef nonnull @__func__.fetch_att) #8
  unreachable

54:                                               ; preds = %26
  %55 = ptrtoint ptr %32 to i64
  br label %fastgetattr.exit

56:                                               ; preds = %20
  %57 = tail call i64 @nocachegetattr(ptr noundef nonnull %0, i32 noundef range(i32 1, 2048) %1, ptr noundef nonnull %2) #8
  br label %fastgetattr.exit

58:                                               ; preds = %16
  %59 = getelementptr inbounds nuw i8, ptr %.val.i, i64 23
  %60 = lshr i32 %19, 3
  %61 = zext nneg i32 %60 to i64
  %62 = getelementptr inbounds nuw i8, ptr %59, i64 %61
  %63 = load i8, ptr %62, align 1
  %64 = zext i8 %63 to i32
  %65 = and i32 %19, 7
  %66 = shl nuw nsw i32 1, %65
  %67 = and i32 %66, %64
  %.not.i20.i = icmp eq i32 %67, 0
  br i1 %.not.i20.i, label %68, label %69

68:                                               ; preds = %58
  store i8 1, ptr %3, align 1
  br label %fastgetattr.exit

69:                                               ; preds = %58
  %70 = tail call i64 @nocachegetattr(ptr noundef nonnull %0, i32 noundef range(i32 1, 2048) %1, ptr noundef %2) #8
  br label %fastgetattr.exit

71:                                               ; preds = %4
  %72 = tail call i64 @heap_getsysattr(ptr noundef nonnull %0, i32 noundef %1, ptr noundef %2, ptr noundef nonnull %3) #8
  br label %fastgetattr.exit

fastgetattr.exit:                                 ; preds = %69, %68, %56, %54, %48, %45, %42, %39, %71, %14
  %.0 = phi i64 [ %15, %14 ], [ %72, %71 ], [ 0, %68 ], [ %70, %69 ], [ %57, %56 ], [ %49, %48 ], [ %47, %45 ], [ %44, %42 ], [ %41, %39 ], [ %55, %54 ]
  ret i64 %.0
}